; Function Attrs: mustprogress uwtable
define void @_Z21gmx_ana_index_reserveP15gmx_ana_index_ti(ptr noundef captures(none) %0, i32 noundef %1) local_unnamed_addr #0 {
  %3 = getelementptr inbounds nuw i8, ptr %0, i64 16
  %4 = load i32, ptr %3, align 8, !tbaa !75
  %5 = icmp slt i32 %4, %1
  br i1 %5, label %6, label %11

6:                                                ; preds = %2
  %7 = getelementptr inbounds nuw i8, ptr %0, i64 8
  %8 = sext i32 %1 to i64
  %9 = load ptr, ptr %7, align 8, !tbaa !30
  %10 = tail call noundef ptr @_Z12save_reallocPKcS0_iPvmm(ptr noundef nonnull @.str.11, ptr noundef nonnull @.str.3, i32 noundef 278, ptr noundef %9, i64 noundef range(i64 -2147483648, 2147483648) %8, i64 noundef 4)
  store ptr %10, ptr %7, align 8, !tbaa !30
  store i32 %1, ptr %3, align 8, !tbaa !75
  br label %11

11:                                               ; preds = %6, %2
  ret void
}